target datalayout = "e-m:e-p270:32:32-p271:32:32-p272:64:64-i64:64-i128:128-f80:128-n8:16:32:64-S128"
target triple = "x86_64-pc-linux-gnu"

%struct.BIO_ASN1_EX_FUNCS_st = type { ptr, ptr }

; Function Attrs: nounwind uwtable
define internal i32 @asn1_bio_set_ex(ptr noundef %0, i32 noundef %1, ptr noundef %2, ptr noundef %3) #0 {
  %5 = alloca ptr, align 8
  %6 = alloca i32, align 4
  %7 = alloca ptr, align 8
  %8 = alloca ptr, align 8
  %9 = alloca %struct.BIO_ASN1_EX_FUNCS_st, align 8
  store ptr %0, ptr %5, align 8, !tbaa !6
  store i32 %1, ptr %6, align 4, !tbaa !12
  store ptr %2, ptr %7, align 8, !tbaa !11
  store ptr %3, ptr %8, align 8, !tbaa !11
  call void @llvm.lifetime.start.p0(i64 16, ptr %9) #6
  %10 = load ptr, ptr %7, align 8, !tbaa !11
  %11 = getelementptr inbounds nuw %struct.BIO_ASN1_EX_FUNCS_st, ptr %9, i32 0, i32 0
  store ptr %10, ptr %11, align 8, !tbaa !14
  %12 = load ptr, ptr %8, align 8, !tbaa !11
  %13 = getelementptr inbounds nuw %struct.BIO_ASN1_EX_FUNCS_st, ptr %9, i32 0, i32 1
  store ptr %12, ptr %13, align 8, !tbaa !16
  %14 = load ptr, ptr %5, align 8, !tbaa !6
  %15 = load i32, ptr %6, align 4, !tbaa !12
  %16 = call i64 @BIO_ctrl(ptr noundef %14, i32 noundef %15, i64 noundef 0, ptr noundef %9)
  %17 = trunc i64 %16 to i32
  call void @llvm.lifetime.end.p0(i64 16, ptr %9) #6
  ret i32 %17
}

; Function Attrs: nounwind uwtable
define hidden i32 @BIO_asn1_set_suffix(ptr noundef %0, ptr noundef %1, ptr noundef %2) #0 {
  %4 = alloca ptr, align 8
  %5 = alloca ptr, align 8
  %6 = alloca ptr, align 8
  store ptr %0, ptr %4, align 8, !tbaa !6
  store ptr %1, ptr %5, align 8, !tbaa !11
  store ptr %2, ptr %6, align 8, !tbaa !11
  %7 = load ptr, ptr %4, align 8, !tbaa !6
  %8 = load ptr, ptr %5, align 8, !tbaa !11
  %9 = load ptr, ptr %6, align 8, !tbaa !11
  %10 = call i32 @asn1_bio_set_ex(ptr noundef %7, i32 noundef 151, ptr noundef %8, ptr noundef %9)
  ret i32 %10
}