; Function Attrs: nounwind uwtable
define hidden i32 @BIO_asn1_set_suffix(ptr noundef %0, ptr noundef %1, ptr noundef %2) local_unnamed_addr #1 {
  %4 = alloca %struct.BIO_ASN1_EX_FUNCS_st, align 8
  call void @llvm.lifetime.start.p0(i64 16, ptr nonnull %4) #11
  store ptr %1, ptr %4, align 8, !tbaa !6
  %5 = getelementptr inbounds nuw i8, ptr %4, i64 8
  store ptr %2, ptr %5, align 8, !tbaa !11
  %6 = call i64 @BIO_ctrl(ptr noundef %0, i32 noundef 151, i64 noundef 0, ptr noundef nonnull %4) #11
  %7 = trunc i64 %6 to i32
  call void @llvm.lifetime.end.p0(i64 16, ptr nonnull %4) #11
  ret i32 %7
}